; Function Attrs: mustprogress nounwind uwtable
define hidden void @_ZN17vframeStreamForte10forte_nextEv(ptr noundef nonnull align 8 dereferenceable(5104) %0) local_unnamed_addr #0 align 2 {
  %2 = alloca %class.frame, align 8
  %3 = getelementptr inbounds i8, ptr %0, i64 5048
  %4 = load i32, ptr %3, align 8
  %5 = icmp eq i32 %4, 1
  br i1 %5, label %6, label %_ZN18vframeStreamCommon31fill_in_compiled_inlined_senderEv.exit

6:                                                ; preds = %1
  %7 = getelementptr inbounds i8, ptr %0, i64 5056
  %8 = load i32, ptr %7, align 8
  %.not6 = icmp eq i32 %8, 0
  br i1 %.not6, label %_ZN18vframeStreamCommon31fill_in_compiled_inlined_senderEv.exit, label %_ZN18vframeStreamCommon31fill_in_compiled_inlined_senderEv.exit.thread

_ZN18vframeStreamCommon31fill_in_compiled_inlined_senderEv.exit.thread: ; preds = %6
  tail call void @_ZN18vframeStreamCommon24fill_from_compiled_frameEi(ptr noundef nonnull align 8 dereferenceable(5104) %0, i32 noundef %8)
  %9 = getelementptr inbounds i8, ptr %0, i64 5060
  %10 = load i32, ptr %9, align 4
  %11 = add nsw i32 %10, 1
  store i32 %11, ptr %9, align 4
  br label %.loopexit

_ZN18vframeStreamCommon31fill_in_compiled_inlined_senderEv.exit: ; preds = %6, %1
  %12 = load i32, ptr @MaxJavaStackTraceDepth, align 4
  %.fr = freeze i32 %12
  %.not = icmp eq i32 %.fr, 0
  %13 = getelementptr inbounds i8, ptr %0, i64 56
  %14 = getelementptr inbounds i8, ptr %0, i64 64
  %15 = getelementptr inbounds i8, ptr %0, i64 5045
  %16 = getelementptr inbounds i8, ptr %0, i64 5032
  %17 = getelementptr inbounds i8, ptr %0, i64 5024
  br i1 %.not, label %_ZN18vframeStreamCommon31fill_in_compiled_inlined_senderEv.exit.split.us, label %_ZN18vframeStreamCommon31fill_in_compiled_inlined_senderEv.exit.split.preheader

_ZN18vframeStreamCommon31fill_in_compiled_inlined_senderEv.exit.split.preheader: ; preds = %_ZN18vframeStreamCommon31fill_in_compiled_inlined_senderEv.exit
  %18 = shl i32 %.fr, 1
  %smax = tail call i32 @llvm.smax.i32(i32 %18, i32 0)
  br label %_ZN18vframeStreamCommon31fill_in_compiled_inlined_senderEv.exit.split

_ZN18vframeStreamCommon31fill_in_compiled_inlined_senderEv.exit.split.us: ; preds = %_ZN18vframeStreamCommon31fill_in_compiled_inlined_senderEv.exit, %_ZNK5frame6senderEP11RegisterMap.exit.us
  %19 = load ptr, ptr %13, align 8
  %20 = call noundef zeroext i1 @_ZN5frame15safe_for_senderEP10JavaThread(ptr noundef nonnull align 8 dereferenceable(56) %0, ptr noundef %19) #8
  br i1 %20, label %21, label %.split.us

21:                                               ; preds = %_ZN18vframeStreamCommon31fill_in_compiled_inlined_senderEv.exit.split.us
  call void @_ZNK5frame10sender_rawEP11RegisterMap(ptr dead_on_unwind nonnull writable sret(%class.frame) align 8 %2, ptr noundef nonnull align 8 dereferenceable(56) %0, ptr noundef nonnull %14)
  %22 = load i8, ptr %15, align 1, !noalias !6
  %23 = trunc i8 %22 to i1
  br i1 %23, label %24, label %_ZNK5frame6senderEP11RegisterMap.exit.us

24:                                               ; preds = %21
  %25 = load ptr, ptr %16, align 8, !noalias !6
  %26 = icmp eq ptr %25, null
  br i1 %26, label %_ZNK11RegisterMap7in_contEv.exit.thread.i.us, label %_ZNK11RegisterMap7in_contEv.exit.i.us

_ZNK11RegisterMap7in_contEv.exit.i.us:            ; preds = %24
  %27 = load ptr, ptr %25, align 8
  %.not.i.us = icmp eq ptr %27, null
  br i1 %.not.i.us, label %_ZNK11RegisterMap7in_contEv.exit.thread.i.us, label %_ZNK5frame6senderEP11RegisterMap.exit.us

_ZNK11RegisterMap7in_contEv.exit.thread.i.us:     ; preds = %_ZNK11RegisterMap7in_contEv.exit.i.us, %24
  %28 = load ptr, ptr %17, align 8, !noalias !6
  call void @_ZN17StackWatermarkSet12on_iterationEP10JavaThreadRK5frame(ptr noundef %28, ptr noundef nonnull align 8 dereferenceable(56) %2) #8
  br label %_ZNK5frame6senderEP11RegisterMap.exit.us

_ZNK5frame6senderEP11RegisterMap.exit.us:         ; preds = %_ZNK11RegisterMap7in_contEv.exit.thread.i.us, %_ZNK11RegisterMap7in_contEv.exit.i.us, %21
  call void @llvm.memcpy.p0.p0.i64(ptr noundef nonnull align 8 dereferenceable(56) %0, ptr noundef nonnull align 8 dereferenceable(56) %2, i64 56, i1 false)
  %29 = call noundef zeroext i1 @_ZN18vframeStreamCommon15fill_from_frameEv(ptr noundef nonnull align 8 dereferenceable(5104) %0)
  br i1 %29, label %.loopexit, label %_ZN18vframeStreamCommon31fill_in_compiled_inlined_senderEv.exit.split.us, !llvm.loop !9

_ZN18vframeStreamCommon31fill_in_compiled_inlined_senderEv.exit.split: ; preds = %_ZN18vframeStreamCommon31fill_in_compiled_inlined_senderEv.exit.split.preheader, %_ZNK5frame6senderEP11RegisterMap.exit
  %.0 = phi i32 [ %30, %_ZNK5frame6senderEP11RegisterMap.exit ], [ 0, %_ZN18vframeStreamCommon31fill_in_compiled_inlined_senderEv.exit.split.preheader ]
  %30 = add nuw nsw i32 %.0, 1
  %exitcond.not = icmp eq i32 %.0, %smax
  br i1 %exitcond.not, label %.split.us, label %31

31:                                               ; preds = %_ZN18vframeStreamCommon31fill_in_compiled_inlined_senderEv.exit.split
  %32 = load ptr, ptr %13, align 8
  %33 = call noundef zeroext i1 @_ZN5frame15safe_for_senderEP10JavaThread(ptr noundef nonnull align 8 dereferenceable(56) %0, ptr noundef %32) #8
  br i1 %33, label %34, label %.split.us

.split.us:                                        ; preds = %31, %_ZN18vframeStreamCommon31fill_in_compiled_inlined_senderEv.exit.split, %_ZN18vframeStreamCommon31fill_in_compiled_inlined_senderEv.exit.split.us
  store i32 2, ptr %3, align 8
  br label %.loopexit

34:                                               ; preds = %31
  call void @_ZNK5frame10sender_rawEP11RegisterMap(ptr dead_on_unwind nonnull writable sret(%class.frame) align 8 %2, ptr noundef nonnull align 8 dereferenceable(56) %0, ptr noundef nonnull %14)
  %35 = load i8, ptr %15, align 1, !noalias !6
  %36 = trunc i8 %35 to i1
  br i1 %36, label %37, label %_ZNK5frame6senderEP11RegisterMap.exit

37:                                               ; preds = %34
  %38 = load ptr, ptr %16, align 8, !noalias !6
  %39 = icmp eq ptr %38, null
  br i1 %39, label %_ZNK11RegisterMap7in_contEv.exit.thread.i, label %_ZNK11RegisterMap7in_contEv.exit.i

_ZNK11RegisterMap7in_contEv.exit.i:               ; preds = %37
  %40 = load ptr, ptr %38, align 8
  %.not.i = icmp eq ptr %40, null
  br i1 %.not.i, label %_ZNK11RegisterMap7in_contEv.exit.thread.i, label %_ZNK5frame6senderEP11RegisterMap.exit

_ZNK11RegisterMap7in_contEv.exit.thread.i:        ; preds = %_ZNK11RegisterMap7in_contEv.exit.i, %37
  %41 = load ptr, ptr %17, align 8, !noalias !6
  call void @_ZN17StackWatermarkSet12on_iterationEP10JavaThreadRK5frame(ptr noundef %41, ptr noundef nonnull align 8 dereferenceable(56) %2) #8
  br label %_ZNK5frame6senderEP11RegisterMap.exit

_ZNK5frame6senderEP11RegisterMap.exit:            ; preds = %34, %_ZNK11RegisterMap7in_contEv.exit.i, %_ZNK11RegisterMap7in_contEv.exit.thread.i
  call void @llvm.memcpy.p0.p0.i64(ptr noundef nonnull align 8 dereferenceable(56) %0, ptr noundef nonnull align 8 dereferenceable(56) %2, i64 56, i1 false)
  %42 = call noundef zeroext i1 @_ZN18vframeStreamCommon15fill_from_frameEv(ptr noundef nonnull align 8 dereferenceable(5104) %0)
  br i1 %42, label %.loopexit, label %_ZN18vframeStreamCommon31fill_in_compiled_inlined_senderEv.exit.split, !llvm.loop !9

.loopexit:                                        ; preds = %_ZNK5frame6senderEP11RegisterMap.exit, %_ZNK5frame6senderEP11RegisterMap.exit.us, %_ZN18vframeStreamCommon31fill_in_compiled_inlined_senderEv.exit.thread, %.split.us
  ret void
}